target datalayout = "e-m:e-p270:32:32-p271:32:32-p272:64:64-i64:64-f80:128-n8:16:32:64-S128"
target triple = "x86_64-pc-linux-gnu"

@.str = private unnamed_addr constant [3 x i8] c"%d\00", align 1
@.str.1 = private unnamed_addr constant [4 x i8] c"%d\0A\00", align 1
@.str.2 = private unnamed_addr constant [4 x i8] c"%s\0A\00", align 1
@.str.3 = private unnamed_addr constant [3 x i8] c"NO\00", align 1

; Function Attrs: noinline nounwind uwtable
define dso_local i32 @main() #0 {
  %1 = alloca i32, align 4
  %2 = alloca i32, align 4
  %3 = alloca i32, align 4
  %4 = alloca i32, align 4
  %5 = alloca i32, align 4
  %6 = alloca i32, align 4
  %7 = alloca i32, align 4
  %8 = alloca [511 x i32], align 16
  %9 = alloca i32, align 4
  %10 = alloca i32, align 4
  %11 = alloca i32, align 4
  %12 = alloca i32, align 4
  %13 = alloca i32, align 4
  %14 = alloca i32, align 4
  %15 = alloca [511 x i8], align 16
  %16 = alloca [511 x [511 x i8]], align 16
  %17 = alloca [511 x i8], align 16
  store i32 0, i32* %1, align 4
  store i32 0, i32* %5, align 4
  %18 = bitcast [511 x i32]* %8 to i8*
  call void @llvm.memset.p0i8.i64(i8* align 16 %18, i8 0, i64 2044, i1 false)
  store i32 0, i32* %9, align 4
  store i32 0, i32* %10, align 4
  store i32 0, i32* %11, align 4
  %19 = call i32 (i8*, ...) @__isoc99_scanf(i8* getelementptr inbounds ([3 x i8], [3 x i8]* @.str, i64 0, i64 0), i32* %2)
  %20 = call i32 @getchar()
  %21 = getelementptr inbounds [511 x i8], [511 x i8]* %15, i64 0, i64 0
  %22 = call i32 (i8*, ...) bitcast (i32 (...)* @gets to i32 (i8*, ...)*)(i8* %21)
  %23 = getelementptr inbounds [511 x i8], [511 x i8]* %15, i64 0, i64 0
  %24 = call i64 @strlen(i8* %23) #4
  %25 = trunc i64 %24 to i32
  store i32 %25, i32* %3, align 4
  store i32 0, i32* %4, align 4
  br label %26

26:                                               ; preds = %63, %0
  %27 = load i32, i32* %4, align 4
  %28 = load i32, i32* %3, align 4
  %29 = load i32, i32* %2, align 4
  %30 = sub nsw i32 %28, %29
  %31 = icmp sle i32 %27, %30
  br i1 %31, label %32, label %66

32:                                               ; preds = %26
  store i32 0, i32* %5, align 4
  store i32 0, i32* %6, align 4
  br label %33

33:                                               ; preds = %37, %32
  %34 = load i32, i32* %6, align 4
  %35 = load i32, i32* %2, align 4
  %36 = icmp slt i32 %34, %35
  br i1 %36, label %37, label %54

37:                                               ; preds = %33
  %38 = load i32, i32* %4, align 4
  %39 = load i32, i32* %5, align 4
  %40 = add nsw i32 %38, %39
  %41 = sext i32 %40 to i64
  %42 = getelementptr inbounds [511 x i8], [511 x i8]* %15, i64 0, i64 %41
  %43 = load i8, i8* %42, align 1
  %44 = load i32, i32* %9, align 4
  %45 = sext i32 %44 to i64
  %46 = getelementptr inbounds [511 x [511 x i8]], [511 x [511 x i8]]* %16, i64 0, i64 %45
  %47 = load i32, i32* %6, align 4
  %48 = sext i32 %47 to i64
  %49 = getelementptr inbounds [511 x i8], [511 x i8]* %46, i64 0, i64 %48
  store i8 %43, i8* %49, align 1
  %50 = load i32, i32* %5, align 4
  %51 = add nsw i32 %50, 1
  store i32 %51, i32* %5, align 4
  %52 = load i32, i32* %6, align 4
  %53 = add nsw i32 %52, 1
  store i32 %53, i32* %6, align 4
  br label %33

54:                                               ; preds = %33
  %55 = load i32, i32* %9, align 4
  %56 = sext i32 %55 to i64
  %57 = getelementptr inbounds [511 x [511 x i8]], [511 x [511 x i8]]* %16, i64 0, i64 %56
  %58 = load i32, i32* %6, align 4
  %59 = sext i32 %58 to i64
  %60 = getelementptr inbounds [511 x i8], [511 x i8]* %57, i64 0, i64 %59
  store i8 0, i8* %60, align 1
  %61 = load i32, i32* %9, align 4
  %62 = add nsw i32 %61, 1
  store i32 %62, i32* %9, align 4
  br label %63

63:                                               ; preds = %54
  %64 = load i32, i32* %4, align 4
  %65 = add nsw i32 %64, 1
  store i32 %65, i32* %4, align 4
  br label %26

66:                                               ; preds = %26
  store i32 0, i32* %10, align 4
  br label %67

67:                                               ; preds = %103, %66
  %68 = load i32, i32* %10, align 4
  %69 = load i32, i32* %3, align 4
  %70 = load i32, i32* %2, align 4
  %71 = sub nsw i32 %69, %70
  %72 = icmp sle i32 %68, %71
  br i1 %72, label %73, label %106

73:                                               ; preds = %67
  %74 = load i32, i32* %10, align 4
  store i32 %74, i32* %11, align 4
  br label %75

75:                                               ; preds = %99, %73
  %76 = load i32, i32* %11, align 4
  %77 = load i32, i32* %3, align 4
  %78 = load i32, i32* %2, align 4
  %79 = sub nsw i32 %77, %78
  %80 = icmp sle i32 %76, %79
  br i1 %80, label %81, label %102

81:                                               ; preds = %75
  %82 = load i32, i32* %10, align 4
  %83 = sext i32 %82 to i64
  %84 = getelementptr inbounds [511 x [511 x i8]], [511 x [511 x i8]]* %16, i64 0, i64 %83
  %85 = getelementptr inbounds [511 x i8], [511 x i8]* %84, i64 0, i64 0
  %86 = load i32, i32* %11, align 4
  %87 = sext i32 %86 to i64
  %88 = getelementptr inbounds [511 x [511 x i8]], [511 x [511 x i8]]* %16, i64 0, i64 %87
  %89 = getelementptr inbounds [511 x i8], [511 x i8]* %88, i64 0, i64 0
  %90 = call i32 @strcmp(i8* %85, i8* %89) #4
  %91 = icmp eq i32 %90, 0
  br i1 %91, label %92, label %98

92:                                               ; preds = %81
  %93 = load i32, i32* %10, align 4
  %94 = sext i32 %93 to i64
  %95 = getelementptr inbounds [511 x i32], [511 x i32]* %8, i64 0, i64 %94
  %96 = load i32, i32* %95, align 4
  %97 = add nsw i32 %96, 1
  store i32 %97, i32* %95, align 4
  br label %98

98:                                               ; preds = %92, %81
  br label %99

99:                                               ; preds = %98
  %100 = load i32, i32* %11, align 4
  %101 = add nsw i32 %100, 1
  store i32 %101, i32* %11, align 4
  br label %75

102:                                              ; preds = %75
  br label %103

103:                                              ; preds = %102
  %104 = load i32, i32* %10, align 4
  %105 = add nsw i32 %104, 1
  store i32 %105, i32* %10, align 4
  br label %67

106:                                              ; preds = %67
  %107 = getelementptr inbounds [511 x i32], [511 x i32]* %8, i64 0, i64 0
  %108 = load i32, i32* %107, align 16
  store i32 %108, i32* %13, align 4
  store i32 0, i32* %12, align 4
  br label %109

109:                                              ; preds = %128, %106
  %110 = load i32, i32* %12, align 4
  %111 = load i32, i32* %3, align 4
  %112 = load i32, i32* %2, align 4
  %113 = sub nsw i32 %111, %112
  %114 = icmp sle i32 %110, %113
  br i1 %114, label %115, label %131

115:                                              ; preds = %109
  %116 = load i32, i32* %12, align 4
  %117 = sext i32 %116 to i64
  %118 = getelementptr inbounds [511 x i32], [511 x i32]* %8, i64 0, i64 %117
  %119 = load i32, i32* %118, align 4
  %120 = load i32, i32* %13, align 4
  %121 = icmp sgt i32 %119, %120
  br i1 %121, label %122, label %127

122:                                              ; preds = %115
  %123 = load i32, i32* %12, align 4
  %124 = sext i32 %123 to i64
  %125 = getelementptr inbounds [511 x i32], [511 x i32]* %8, i64 0, i64 %124
  %126 = load i32, i32* %125, align 4
  store i32 %126, i32* %13, align 4
  br label %127

127:                                              ; preds = %122, %115
  br label %128

128:                                              ; preds = %127
  %129 = load i32, i32* %12, align 4
  %130 = add nsw i32 %129, 1
  store i32 %130, i32* %12, align 4
  br label %109

131:                                              ; preds = %109
  %132 = load i32, i32* %13, align 4
  %133 = icmp sgt i32 %132, 1
  br i1 %133, label %134, label %161

134:                                              ; preds = %131
  %135 = load i32, i32* %13, align 4
  %136 = call i32 (i8*, ...) @printf(i8* getelementptr inbounds ([4 x i8], [4 x i8]* @.str.1, i64 0, i64 0), i32 %135)
  store i32 0, i32* %12, align 4
  br label %137

137:                                              ; preds = %157, %134
  %138 = load i32, i32* %12, align 4
  %139 = load i32, i32* %3, align 4
  %140 = load i32, i32* %2, align 4
  %141 = sub nsw i32 %139, %140
  %142 = icmp sle i32 %138, %141
  br i1 %142, label %143, label %160

143:                                              ; preds = %137
  %144 = load i32, i32* %12, align 4
  %145 = sext i32 %144 to i64
  %146 = getelementptr inbounds [511 x i32], [511 x i32]* %8, i64 0, i64 %145
  %147 = load i32, i32* %146, align 4
  %148 = load i32, i32* %13, align 4
  %149 = icmp eq i32 %147, %148
  br i1 %149, label %150, label %156

150:                                              ; preds = %143
  %151 = load i32, i32* %12, align 4
  %152 = sext i32 %151 to i64
  %153 = getelementptr inbounds [511 x [511 x i8]], [511 x [511 x i8]]* %16, i64 0, i64 %152
  %154 = getelementptr inbounds [511 x i8], [511 x i8]* %153, i64 0, i64 0
  %155 = call i32 (i8*, ...) @printf(i8* getelementptr inbounds ([4 x i8], [4 x i8]* @.str.2, i64 0, i64 0), i8* %154)
  br label %156

156:                                              ; preds = %150, %143
  br label %157

157:                                              ; preds = %156
  %158 = load i32, i32* %12, align 4
  %159 = add nsw i32 %158, 1
  store i32 %159, i32* %12, align 4
  br label %137

160:                                              ; preds = %137
  br label %163

161:                                              ; preds = %131
  %162 = call i32 (i8*, ...) @printf(i8* getelementptr inbounds ([3 x i8], [3 x i8]* @.str.3, i64 0, i64 0))
  br label %163

163:                                              ; preds = %161, %160
  ret i32 0
}